# SymbolsHelper-Confirmed: 0.7.0 amd64
libqzeitgeist.so.0 libqzeitgeist #MINVER#
 (optional=templinst)_Z19qDBusMarshallHelperI5QListIN11QtZeitgeist9DataModel10DataSourceEEEvR13QDBusArgumentPKT_@Base 0.7.0
 (optional=templinst)_Z19qDBusMarshallHelperI5QListIN11QtZeitgeist9DataModel5EventEEEvR13QDBusArgumentPKT_@Base 0.7.0
 (optional=templinst)_Z19qDBusMarshallHelperI5QListIjEEvR13QDBusArgumentPKT_@Base 0.7.0
 (optional=templinst)_Z19qDBusMarshallHelperIN11QtZeitgeist9DataModel10DataSourceEEvR13QDBusArgumentPKT_@Base 0.7.0
 (optional=templinst)_Z19qDBusMarshallHelperIN11QtZeitgeist9DataModel5EventEEvR13QDBusArgumentPKT_@Base 0.7.0
 (optional=templinst)_Z19qDBusMarshallHelperIN11QtZeitgeist9DataModel9TimeRangeEEvR13QDBusArgumentPKT_@Base 0.7.0
 (optional=templinst)_Z21qDBusDemarshallHelperI5QListIN11QtZeitgeist9DataModel10DataSourceEEEvRK13QDBusArgumentPT_@Base 0.7.0
 (optional=templinst)_Z21qDBusDemarshallHelperI5QListIN11QtZeitgeist9DataModel5EventEEEvRK13QDBusArgumentPT_@Base 0.7.0
 (optional=templinst)_Z21qDBusDemarshallHelperI5QListIjEEvRK13QDBusArgumentPT_@Base 0.7.0
 (optional=templinst)_Z21qDBusDemarshallHelperIN11QtZeitgeist9DataModel10DataSourceEEvRK13QDBusArgumentPT_@Base 0.7.0
 (optional=templinst)_Z21qDBusDemarshallHelperIN11QtZeitgeist9DataModel5EventEEvRK13QDBusArgumentPT_@Base 0.7.0
 (optional=templinst)_Z21qDBusDemarshallHelperIN11QtZeitgeist9DataModel9TimeRangeEEvRK13QDBusArgumentPT_@Base 0.7.0
 (optional=templinst)_Z21qMetaTypeDeleteHelperI15QDBusObjectPathEvPT_@Base 0.7.0
 (optional=templinst)_Z21qMetaTypeDeleteHelperI5QListIN11QtZeitgeist9DataModel10DataSourceEEEvPT_@Base 0.7.0
 (optional=templinst)_Z21qMetaTypeDeleteHelperI5QListIN11QtZeitgeist9DataModel5EventEEEvPT_@Base 0.7.0
 (optional=templinst)_Z21qMetaTypeDeleteHelperI5QListIjEEvPT_@Base 0.7.0
 (optional=templinst)_Z21qMetaTypeDeleteHelperIN11QtZeitgeist9DataModel10DataSourceEEvPT_@Base 0.7.0
 (optional=templinst)_Z21qMetaTypeDeleteHelperIN11QtZeitgeist9DataModel5EventEEvPT_@Base 0.7.0
 (optional=templinst)_Z21qMetaTypeDeleteHelperIN11QtZeitgeist9DataModel9TimeRangeEEvPT_@Base 0.7.0
 (optional=templinst)_Z24qMetaTypeConstructHelperI15QDBusObjectPathEPvPKT_@Base 0.7.0
 (optional=templinst)_Z24qMetaTypeConstructHelperI5QListIN11QtZeitgeist9DataModel10DataSourceEEEPvPKT_@Base 0.7.0
 (optional=templinst)_Z24qMetaTypeConstructHelperI5QListIN11QtZeitgeist9DataModel5EventEEEPvPKT_@Base 0.7.0
 (optional=templinst)_Z24qMetaTypeConstructHelperI5QListIjEEPvPKT_@Base 0.7.0
 (optional=templinst)_Z24qMetaTypeConstructHelperIN11QtZeitgeist9DataModel10DataSourceEEPvPKT_@Base 0.7.0
 (optional=templinst)_Z24qMetaTypeConstructHelperIN11QtZeitgeist9DataModel5EventEEPvPKT_@Base 0.7.0
 (optional=templinst)_Z24qMetaTypeConstructHelperIN11QtZeitgeist9DataModel9TimeRangeEEPvPKT_@Base 0.7.0
 _ZN10QByteArrayD1Ev@Base 0.7.0
 _ZN10QByteArrayD2Ev@Base 0.7.0
 _ZN11QStringListD1Ev@Base 0.7.0
 _ZN11QStringListD2Ev@Base 0.7.0
 _ZN11QtZeitgeist10LogPrivate14monitorIdIndexE@Base 0.7.0
 _ZN11QtZeitgeist14MonitorPrivate11qt_metacallEN11QMetaObject4CallEiPPv@Base 0.7.0
 _ZN11QtZeitgeist14MonitorPrivate11qt_metacastEPKc@Base 0.7.0
 _ZN11QtZeitgeist14MonitorPrivate12NotifyDeleteERKNS_9DataModel9TimeRangeERK5QListIjE@Base 0.7.0
 _ZN11QtZeitgeist14MonitorPrivate12NotifyInsertERKNS_9DataModel9TimeRangeERK5QListINS1_5EventEE@Base 0.7.0
 _ZN11QtZeitgeist14MonitorPrivate16staticMetaObjectE@Base 0.7.0
 _ZN11QtZeitgeist14MonitorPrivateC1EyNS_9DataModel9TimeRangeE5QListINS1_5EventEEPNS_7MonitorE@Base 0.7.0
 _ZN11QtZeitgeist14MonitorPrivateC2EyNS_9DataModel9TimeRangeE5QListINS1_5EventEEPNS_7MonitorE@Base 0.7.0
 _ZN11QtZeitgeist14MonitorPrivateD0Ev@Base 0.7.0
 _ZN11QtZeitgeist14MonitorPrivateD1Ev@Base 0.7.0
 _ZN11QtZeitgeist14MonitorPrivateD2Ev@Base 0.7.0
 _ZN11QtZeitgeist18DataSourceRegistry11qt_metacallEN11QMetaObject4CallEiPPv@Base 0.7.0
 _ZN11QtZeitgeist18DataSourceRegistry11qt_metacastEPKc@Base 0.7.0
 _ZN11QtZeitgeist18DataSourceRegistry14getDataSourcesEv@Base 0.7.0
 _ZN11QtZeitgeist18DataSourceRegistry16staticMetaObjectE@Base 0.7.0
 _ZN11QtZeitgeist18DataSourceRegistry17dataSourceEnabledERK7QStringb@Base 0.7.0
 _ZN11QtZeitgeist18DataSourceRegistry18registerDataSourceERK7QStringS3_S3_R5QListINS_9DataModel5EventEE@Base 0.7.0
 _ZN11QtZeitgeist18DataSourceRegistry20dataSourceRegisteredERKNS_9DataModel10DataSourceE@Base 0.7.0
 _ZN11QtZeitgeist18DataSourceRegistry20setDataSourceEnabledERK7QStringb@Base 0.7.0
 _ZN11QtZeitgeist18DataSourceRegistry22dataSourceDisconnectedERKNS_9DataModel10DataSourceE@Base 0.7.0
 _ZN11QtZeitgeist18DataSourceRegistryC1EP7QObject@Base 0.7.0
 _ZN11QtZeitgeist18DataSourceRegistryC2EP7QObject@Base 0.7.0
 _ZN11QtZeitgeist18DataSourceRegistryD0Ev@Base 0.7.0
 _ZN11QtZeitgeist18DataSourceRegistryD1Ev@Base 0.7.0
 _ZN11QtZeitgeist18DataSourceRegistryD2Ev@Base 0.7.0
 _ZN11QtZeitgeist3Log10findEventsENS_9DataModel9TimeRangeE5QListINS1_5EventEENS0_12StorageStateEjNS0_10ResultTypeE@Base 0.7.0
 _ZN11QtZeitgeist3Log11qt_metacallEN11QMetaObject4CallEiPPv@Base 0.7.0
 _ZN11QtZeitgeist3Log11qt_metacastEPKc@Base 0.7.0
 _ZN11QtZeitgeist3Log12deleteEventsE5QListIjE@Base 0.7.0
 _ZN11QtZeitgeist3Log12findEventIdsENS_9DataModel9TimeRangeE5QListINS1_5EventEENS0_12StorageStateEjNS0_10ResultTypeE@Base 0.7.0
 _ZN11QtZeitgeist3Log12insertEventsE5QListINS_9DataModel5EventEE@Base 0.7.0
 _ZN11QtZeitgeist3Log13removeMonitorEPNS_7MonitorE@Base 0.7.0
 _ZN11QtZeitgeist3Log14installMonitorENS_9DataModel9TimeRangeE5QListINS1_5EventEE@Base 0.7.0
 _ZN11QtZeitgeist3Log15findRelatedUrisENS_9DataModel9TimeRangeE5QListINS1_5EventEES5_NS0_12StorageStateEjNS0_10ResultTypeE@Base 0.7.0
 _ZN11QtZeitgeist3Log16staticMetaObjectE@Base 0.7.0
 _ZN11QtZeitgeist3Log9deleteLogEv@Base 0.7.0
 _ZN11QtZeitgeist3Log9getEventsE5QListIjE@Base 0.7.0
 _ZN11QtZeitgeist3LogC1EP7QObject@Base 0.7.0
 _ZN11QtZeitgeist3LogC2EP7QObject@Base 0.7.0
 _ZN11QtZeitgeist3LogD0Ev@Base 0.7.0
 _ZN11QtZeitgeist3LogD1Ev@Base 0.7.0
 _ZN11QtZeitgeist3LogD2Ev@Base 0.7.0
 _ZN11QtZeitgeist4initEv@Base 0.7.0
 _ZN11QtZeitgeist7Monitor11qt_metacallEN11QMetaObject4CallEiPPv@Base 0.7.0
 _ZN11QtZeitgeist7Monitor11qt_metacastEPKc@Base 0.7.0
 _ZN11QtZeitgeist7Monitor13eventsDeletedERKNS_9DataModel9TimeRangeERK5QListIjE@Base 0.7.0
 _ZN11QtZeitgeist7Monitor14eventsInsertedERKNS_9DataModel9TimeRangeERK5QListINS1_5EventEE@Base 0.7.0
 _ZN11QtZeitgeist7Monitor16staticMetaObjectE@Base 0.7.0
 _ZN11QtZeitgeist7MonitorC1EyNS_9DataModel9TimeRangeE5QListINS1_5EventEEP7QObject@Base 0.7.0
 _ZN11QtZeitgeist7MonitorC2EyNS_9DataModel9TimeRangeE5QListINS1_5EventEEP7QObject@Base 0.7.0
 _ZN11QtZeitgeist7MonitorD0Ev@Base 0.7.0
 _ZN11QtZeitgeist7MonitorD1Ev@Base 0.7.0
 _ZN11QtZeitgeist7MonitorD2Ev@Base 0.7.0
 _ZN11QtZeitgeist9DataModel10DataSource11qt_metacallEN11QMetaObject4CallEiPPv@Base 0.7.0
 _ZN11QtZeitgeist9DataModel10DataSource11qt_metacastEPKc@Base 0.7.0
 _ZN11QtZeitgeist9DataModel10DataSource16staticMetaObjectE@Base 0.7.0
 _ZN11QtZeitgeist9DataModel10DataSourceC1EP7QObject@Base 0.7.0
 _ZN11QtZeitgeist9DataModel10DataSourceC1ERKS1_P7QObject@Base 0.7.0
 _ZN11QtZeitgeist9DataModel10DataSourceC2EP7QObject@Base 0.7.0
 _ZN11QtZeitgeist9DataModel10DataSourceC2ERKS1_P7QObject@Base 0.7.0
 _ZN11QtZeitgeist9DataModel10DataSourceD0Ev@Base 0.7.0
 _ZN11QtZeitgeist9DataModel10DataSourceD1Ev@Base 0.7.0
 _ZN11QtZeitgeist9DataModel10DataSourceD2Ev@Base 0.7.0
 _ZN11QtZeitgeist9DataModel10DataSourceaSERKS1_@Base 0.7.0
 _ZN11QtZeitgeist9DataModel5Event10addSubjectERKNS0_7SubjectE@Base 0.7.0
 _ZN11QtZeitgeist9DataModel5Event10setPayloadERK10QByteArray@Base 0.7.0
 _ZN11QtZeitgeist9DataModel5Event11qt_metacallEN11QMetaObject4CallEiPPv@Base 0.7.0
 _ZN11QtZeitgeist9DataModel5Event11qt_metacastEPKc@Base 0.7.0
 _ZN11QtZeitgeist9DataModel5Event11setSubjectsERK5QListINS0_7SubjectEE@Base 0.7.0
 _ZN11QtZeitgeist9DataModel5Event12setTimestampERK9QDateTime@Base 0.7.0
 _ZN11QtZeitgeist9DataModel5Event16setManifestationERK7QString@Base 0.7.0
 _ZN11QtZeitgeist9DataModel5Event16staticMetaObjectE@Base 0.7.0
 _ZN11QtZeitgeist9DataModel5Event17setInterpretationERK7QString@Base 0.7.0
 _ZN11QtZeitgeist9DataModel5Event8setActorERK7QString@Base 0.7.0
 _ZN11QtZeitgeist9DataModel5EventC1EP7QObject@Base 0.7.0
 _ZN11QtZeitgeist9DataModel5EventC1ERKS1_P7QObject@Base 0.7.0
 _ZN11QtZeitgeist9DataModel5EventC2EP7QObject@Base 0.7.0
 _ZN11QtZeitgeist9DataModel5EventC2ERKS1_P7QObject@Base 0.7.0
 _ZN11QtZeitgeist9DataModel5EventD0Ev@Base 0.7.0
 _ZN11QtZeitgeist9DataModel5EventD1Ev@Base 0.7.0
 _ZN11QtZeitgeist9DataModel5EventD2Ev@Base 0.7.0
 _ZN11QtZeitgeist9DataModel5EventaSERKS1_@Base 0.7.0
 _ZN11QtZeitgeist9DataModel7Subject10setStorageERK7QString@Base 0.7.0
 _ZN11QtZeitgeist9DataModel7Subject11qt_metacallEN11QMetaObject4CallEiPPv@Base 0.7.0
 _ZN11QtZeitgeist9DataModel7Subject11qt_metacastEPKc@Base 0.7.0
 _ZN11QtZeitgeist9DataModel7Subject11setMimeTypeERK7QString@Base 0.7.0
 _ZN11QtZeitgeist9DataModel7Subject16setManifestationERK7QString@Base 0.7.0
 _ZN11QtZeitgeist9DataModel7Subject16staticMetaObjectE@Base 0.7.0
 _ZN11QtZeitgeist9DataModel7Subject17setInterpretationERK7QString@Base 0.7.0
 _ZN11QtZeitgeist9DataModel7Subject6setUriERK7QString@Base 0.7.0
 _ZN11QtZeitgeist9DataModel7Subject7setTextERK7QString@Base 0.7.0
 _ZN11QtZeitgeist9DataModel7Subject9setOriginERK7QString@Base 0.7.0
 _ZN11QtZeitgeist9DataModel7SubjectC1EP7QObject@Base 0.7.0
 _ZN11QtZeitgeist9DataModel7SubjectC1ERKS1_P7QObject@Base 0.7.0
 _ZN11QtZeitgeist9DataModel7SubjectC2EP7QObject@Base 0.7.0
 _ZN11QtZeitgeist9DataModel7SubjectC2ERKS1_P7QObject@Base 0.7.0
 _ZN11QtZeitgeist9DataModel7SubjectD0Ev@Base 0.7.0
 _ZN11QtZeitgeist9DataModel7SubjectD1Ev@Base 0.7.0
 _ZN11QtZeitgeist9DataModel7SubjectD2Ev@Base 0.7.0
 _ZN11QtZeitgeist9DataModel7SubjectaSERKS1_@Base 0.7.0
 _ZN11QtZeitgeist9DataModel9TimeRange11qt_metacallEN11QMetaObject4CallEiPPv@Base 0.7.0
 _ZN11QtZeitgeist9DataModel9TimeRange11qt_metacastEPKc@Base 0.7.0
 _ZN11QtZeitgeist9DataModel9TimeRange14timeRangeToNowEv@Base 0.7.0
 _ZN11QtZeitgeist9DataModel9TimeRange16staticMetaObjectE@Base 0.7.0
 _ZN11QtZeitgeist9DataModel9TimeRange16timeRangeFromNowEv@Base 0.7.0
 _ZN11QtZeitgeist9DataModel9TimeRange6alwaysEv@Base 0.7.0
 _ZN11QtZeitgeist9DataModel9TimeRange6setEndEx@Base 0.7.0
 _ZN11QtZeitgeist9DataModel9TimeRange8setBeginEx@Base 0.7.0
 _ZN11QtZeitgeist9DataModel9TimeRangeC1EP7QObject@Base 0.7.0
 _ZN11QtZeitgeist9DataModel9TimeRangeC1ERKS1_P7QObject@Base 0.7.0
 _ZN11QtZeitgeist9DataModel9TimeRangeC1Exx@Base 0.7.0
 _ZN11QtZeitgeist9DataModel9TimeRangeC2EP7QObject@Base 0.7.0
 _ZN11QtZeitgeist9DataModel9TimeRangeC2ERKS1_P7QObject@Base 0.7.0
 _ZN11QtZeitgeist9DataModel9TimeRangeC2Exx@Base 0.7.0
 _ZN11QtZeitgeist9DataModel9TimeRangeD0Ev@Base 0.7.0
 _ZN11QtZeitgeist9DataModel9TimeRangeD1Ev@Base 0.7.0
 _ZN11QtZeitgeist9DataModel9TimeRangeD2Ev@Base 0.7.0
 _ZN11QtZeitgeist9DataModel9TimeRangeaSERKS1_@Base 0.7.0
 _ZN11QtZeitgeist9DataModellsER13QDBusArgumentRKNS0_10DataSourceE@Base 0.7.0
 _ZN11QtZeitgeist9DataModellsER13QDBusArgumentRKNS0_5EventE@Base 0.7.0
 _ZN11QtZeitgeist9DataModellsER13QDBusArgumentRKNS0_9TimeRangeE@Base 0.7.0
 _ZN11QtZeitgeist9DataModelrsERK13QDBusArgumentRNS0_10DataSourceE@Base 0.7.0
 _ZN11QtZeitgeist9DataModelrsERK13QDBusArgumentRNS0_5EventE@Base 0.7.0
 _ZN11QtZeitgeist9DataModelrsERK13QDBusArgumentRNS0_9TimeRangeE@Base 0.7.0
 _ZN14MonitorAdaptor11qt_metacallEN11QMetaObject4CallEiPPv@Base 0.7.0
 _ZN14MonitorAdaptor11qt_metacastEPKc@Base 0.7.0
 _ZN14MonitorAdaptor12NotifyDeleteERKN11QtZeitgeist9DataModel9TimeRangeERK5QListIjE@Base 0.7.0
 _ZN14MonitorAdaptor12NotifyInsertERKN11QtZeitgeist9DataModel9TimeRangeERK5QListINS1_5EventEE@Base 0.7.0
 _ZN14MonitorAdaptor16staticMetaObjectE@Base 0.7.0
 _ZN14MonitorAdaptorC1EP7QObject@Base 0.7.0
 _ZN14MonitorAdaptorC2EP7QObject@Base 0.7.0
 _ZN14MonitorAdaptorD0Ev@Base 0.7.0
 _ZN14MonitorAdaptorD1Ev@Base 0.7.0
 _ZN14MonitorAdaptorD2Ev@Base 0.7.0
 _ZN29OrgGnomeZeitgeistLogInterface11qt_metacallEN11QMetaObject4CallEiPPv@Base 0.7.0
 _ZN29OrgGnomeZeitgeistLogInterface11qt_metacastEPKc@Base 0.7.0
 _ZN29OrgGnomeZeitgeistLogInterface16staticMetaObjectE@Base 0.7.0
 _ZN29OrgGnomeZeitgeistLogInterfaceC1ERK7QStringS2_RK15QDBusConnectionP7QObject@Base 0.7.0
 _ZN29OrgGnomeZeitgeistLogInterfaceC2ERK7QStringS2_RK15QDBusConnectionP7QObject@Base 0.7.0
 _ZN29OrgGnomeZeitgeistLogInterfaceD0Ev@Base 0.7.0
 _ZN29OrgGnomeZeitgeistLogInterfaceD1Ev@Base 0.7.0
 _ZN29OrgGnomeZeitgeistLogInterfaceD2Ev@Base 0.7.0
 _ZN35OrgGnomeZeitgeistBlacklistInterface11qt_metacallEN11QMetaObject4CallEiPPv@Base 0.7.0
 _ZN35OrgGnomeZeitgeistBlacklistInterface11qt_metacastEPKc@Base 0.7.0
 _ZN35OrgGnomeZeitgeistBlacklistInterface16staticMetaObjectE@Base 0.7.0
 _ZN35OrgGnomeZeitgeistBlacklistInterfaceC1ERK7QStringS2_RK15QDBusConnectionP7QObject@Base 0.7.0
 _ZN35OrgGnomeZeitgeistBlacklistInterfaceC2ERK7QStringS2_RK15QDBusConnectionP7QObject@Base 0.7.0
 _ZN35OrgGnomeZeitgeistBlacklistInterfaceD0Ev@Base 0.7.0
 _ZN35OrgGnomeZeitgeistBlacklistInterfaceD1Ev@Base 0.7.0
 _ZN35OrgGnomeZeitgeistBlacklistInterfaceD2Ev@Base 0.7.0
 _ZN44OrgGnomeZeitgeistDataSourceRegistryInterface11qt_metacallEN11QMetaObject4CallEiPPv@Base 0.7.0
 _ZN44OrgGnomeZeitgeistDataSourceRegistryInterface11qt_metacastEPKc@Base 0.7.0
 _ZN44OrgGnomeZeitgeistDataSourceRegistryInterface16staticMetaObjectE@Base 0.7.0
 _ZN44OrgGnomeZeitgeistDataSourceRegistryInterface17DataSourceEnabledERK7QStringb@Base 0.7.0
 _ZN44OrgGnomeZeitgeistDataSourceRegistryInterface20DataSourceRegisteredERKN11QtZeitgeist9DataModel10DataSourceE@Base 0.7.0
 _ZN44OrgGnomeZeitgeistDataSourceRegistryInterface22DataSourceDisconnectedERKN11QtZeitgeist9DataModel10DataSourceE@Base 0.7.0
 _ZN44OrgGnomeZeitgeistDataSourceRegistryInterfaceC1ERK7QStringS2_RK15QDBusConnectionP7QObject@Base 0.7.0
 _ZN44OrgGnomeZeitgeistDataSourceRegistryInterfaceC2ERK7QStringS2_RK15QDBusConnectionP7QObject@Base 0.7.0
 _ZN44OrgGnomeZeitgeistDataSourceRegistryInterfaceD0Ev@Base 0.7.0
 _ZN44OrgGnomeZeitgeistDataSourceRegistryInterfaceD1Ev@Base 0.7.0
 _ZN44OrgGnomeZeitgeistDataSourceRegistryInterfaceD2Ev@Base 0.7.0
 (optional=templinst)_ZN5QListI11QStringListE13detach_helperEi@Base 0.7.0
 (optional=templinst)_ZN5QListI11QStringListE18detach_helper_growEii@Base 0.7.0
 (optional=templinst)_ZN5QListI11QStringListE5clearEv@Base 0.7.0
 (optional=templinst)_ZN5QListI11QStringListE6appendERKS0_@Base 0.7.0
 (optional=templinst)_ZN5QListI11QStringListED1Ev@Base 0.7.0
 (optional=templinst)_ZN5QListI11QStringListED2Ev@Base 0.7.0
 (optional=templinst)_ZN5QListI7QStringE13detach_helperEi@Base 0.7.0
 (optional=templinst)_ZN5QListI7QStringE18detach_helper_growEii@Base 0.7.0
 (optional=templinst)_ZN5QListI7QStringE6appendERKS0_@Base 0.7.0
 (optional=templinst)_ZN5QListI8QVariantE18detach_helper_growEii@Base 0.7.0
 (optional=templinst)_ZN5QListI8QVariantE6appendERKS0_@Base 0.7.0
 (optional=templinst)_ZN5QListI8QVariantED1Ev@Base 0.7.0
 (optional=templinst)_ZN5QListI8QVariantED2Ev@Base 0.7.0
 (optional=templinst)_ZN5QListIN11QtZeitgeist9DataModel10DataSourceEE13detach_helperEi@Base 0.7.0
 (optional=templinst)_ZN5QListIN11QtZeitgeist9DataModel10DataSourceEE18detach_helper_growEii@Base 0.7.0
 (optional=templinst)_ZN5QListIN11QtZeitgeist9DataModel10DataSourceEE5clearEv@Base 0.7.0
 (optional=templinst)_ZN5QListIN11QtZeitgeist9DataModel10DataSourceEE6appendERKS2_@Base 0.7.0
 (optional=templinst)_ZN5QListIN11QtZeitgeist9DataModel10DataSourceEED1Ev@Base 0.7.0
 (optional=templinst)_ZN5QListIN11QtZeitgeist9DataModel10DataSourceEED2Ev@Base 0.7.0
 (optional=templinst)_ZN5QListIN11QtZeitgeist9DataModel5EventEE13detach_helperEi@Base 0.7.0
 (optional=templinst)_ZN5QListIN11QtZeitgeist9DataModel5EventEE18detach_helper_growEii@Base 0.7.0
 (optional=templinst)_ZN5QListIN11QtZeitgeist9DataModel5EventEE5clearEv@Base 0.7.0
 (optional=templinst)_ZN5QListIN11QtZeitgeist9DataModel5EventEE6appendERKS2_@Base 0.7.0
 (optional=templinst)_ZN5QListIN11QtZeitgeist9DataModel5EventEED1Ev@Base 0.7.0
 (optional=templinst)_ZN5QListIN11QtZeitgeist9DataModel5EventEED2Ev@Base 0.7.0
 (optional=templinst)_ZN5QListIN11QtZeitgeist9DataModel7SubjectEE13detach_helperEi@Base 0.7.0
 (optional=templinst)_ZN5QListIN11QtZeitgeist9DataModel7SubjectEE18detach_helper_growEii@Base 0.7.0
 (optional=templinst)_ZN5QListIN11QtZeitgeist9DataModel7SubjectEE6appendERKS2_@Base 0.7.0
 (optional=templinst)_ZN5QListIN11QtZeitgeist9DataModel7SubjectEED1Ev@Base 0.7.0
 (optional=templinst)_ZN5QListIN11QtZeitgeist9DataModel7SubjectEED2Ev@Base 0.7.0
 (optional=templinst)_ZN5QListIjE13detach_helperEi@Base 0.7.0
 (optional=templinst)_ZN5QListIjE13detach_helperEv@Base 0.7.0
 (optional=templinst)_ZN5QListIjE18detach_helper_growEii@Base 0.7.0
 (optional=templinst)_ZN5QListIjE5clearEv@Base 0.7.0
 (optional=templinst)_ZN5QListIjE6appendERKj@Base 0.7.0
 (optional=templinst)_ZN5QListIjED1Ev@Base 0.7.0
 (optional=templinst)_ZN5QListIjED2Ev@Base 0.7.0
 _ZN7QStringD1Ev@Base 0.7.0
 _ZN7QStringD2Ev@Base 0.7.0
 _ZNK11QtZeitgeist14MonitorPrivate10metaObjectEv@Base 0.7.0
 _ZNK11QtZeitgeist18DataSourceRegistry10metaObjectEv@Base 0.7.0
 _ZNK11QtZeitgeist3Log10metaObjectEv@Base 0.7.0
 _ZNK11QtZeitgeist7Monitor10metaObjectEv@Base 0.7.0
 _ZNK11QtZeitgeist7Monitor10objectPathEv@Base 0.7.0
 _ZNK11QtZeitgeist7Monitor14eventTemplatesEv@Base 0.7.0
 _ZNK11QtZeitgeist7Monitor2idEv@Base 0.7.0
 _ZNK11QtZeitgeist7Monitor9timeRangeEv@Base 0.7.0
 _ZNK11QtZeitgeist9DataModel10DataSource10metaObjectEv@Base 0.7.0
 _ZNK11QtZeitgeist9DataModel10DataSource11descriptionEv@Base 0.7.0
 _ZNK11QtZeitgeist9DataModel10DataSource14eventTemplatesEv@Base 0.7.0
 _ZNK11QtZeitgeist9DataModel10DataSource4nameEv@Base 0.7.0
 _ZNK11QtZeitgeist9DataModel10DataSource7enabledEv@Base 0.7.0
 _ZNK11QtZeitgeist9DataModel10DataSource7runningEv@Base 0.7.0
 _ZNK11QtZeitgeist9DataModel10DataSource8lastSeenEv@Base 0.7.0
 _ZNK11QtZeitgeist9DataModel10DataSource8uniqueIdEv@Base 0.7.0
 _ZNK11QtZeitgeist9DataModel5Event10metaObjectEv@Base 0.7.0
 _ZNK11QtZeitgeist9DataModel5Event13manifestationEv@Base 0.7.0
 _ZNK11QtZeitgeist9DataModel5Event14interpretationEv@Base 0.7.0
 _ZNK11QtZeitgeist9DataModel5Event2idEv@Base 0.7.0
 _ZNK11QtZeitgeist9DataModel5Event5actorEv@Base 0.7.0
 _ZNK11QtZeitgeist9DataModel5Event7payloadEv@Base 0.7.0
 _ZNK11QtZeitgeist9DataModel5Event8subjectsEv@Base 0.7.0
 _ZNK11QtZeitgeist9DataModel5Event9timestampEv@Base 0.7.0
 _ZNK11QtZeitgeist9DataModel7Subject10metaObjectEv@Base 0.7.0
 _ZNK11QtZeitgeist9DataModel7Subject13manifestationEv@Base 0.7.0
 _ZNK11QtZeitgeist9DataModel7Subject14interpretationEv@Base 0.7.0
 _ZNK11QtZeitgeist9DataModel7Subject3uriEv@Base 0.7.0
 _ZNK11QtZeitgeist9DataModel7Subject4textEv@Base 0.7.0
 _ZNK11QtZeitgeist9DataModel7Subject6originEv@Base 0.7.0
 _ZNK11QtZeitgeist9DataModel7Subject7storageEv@Base 0.7.0
 _ZNK11QtZeitgeist9DataModel7Subject8mimeTypeEv@Base 0.7.0
 _ZNK11QtZeitgeist9DataModel9TimeRange10metaObjectEv@Base 0.7.0
 _ZNK11QtZeitgeist9DataModel9TimeRange3endEv@Base 0.7.0
 _ZNK11QtZeitgeist9DataModel9TimeRange5beginEv@Base 0.7.0
 _ZNK14MonitorAdaptor10metaObjectEv@Base 0.7.0
 _ZNK29OrgGnomeZeitgeistLogInterface10metaObjectEv@Base 0.7.0
 _ZNK35OrgGnomeZeitgeistBlacklistInterface10metaObjectEv@Base 0.7.0
 _ZNK44OrgGnomeZeitgeistDataSourceRegistryInterface10metaObjectEv@Base 0.7.0
 _ZTI14MonitorAdaptor@Base 0.7.0
 _ZTI29OrgGnomeZeitgeistLogInterface@Base 0.7.0
 _ZTI35OrgGnomeZeitgeistBlacklistInterface@Base 0.7.0
 _ZTI44OrgGnomeZeitgeistDataSourceRegistryInterface@Base 0.7.0
 _ZTIN11QtZeitgeist14MonitorPrivateE@Base 0.7.0
 _ZTIN11QtZeitgeist18DataSourceRegistryE@Base 0.7.0
 _ZTIN11QtZeitgeist3LogE@Base 0.7.0
 _ZTIN11QtZeitgeist7MonitorE@Base 0.7.0
 _ZTIN11QtZeitgeist9DataModel10DataSourceE@Base 0.7.0
 _ZTIN11QtZeitgeist9DataModel5EventE@Base 0.7.0
 _ZTIN11QtZeitgeist9DataModel7SubjectE@Base 0.7.0
 _ZTIN11QtZeitgeist9DataModel9TimeRangeE@Base 0.7.0
 _ZTS14MonitorAdaptor@Base 0.7.0
 _ZTS29OrgGnomeZeitgeistLogInterface@Base 0.7.0
 _ZTS35OrgGnomeZeitgeistBlacklistInterface@Base 0.7.0
 _ZTS44OrgGnomeZeitgeistDataSourceRegistryInterface@Base 0.7.0
 _ZTSN11QtZeitgeist14MonitorPrivateE@Base 0.7.0
 _ZTSN11QtZeitgeist18DataSourceRegistryE@Base 0.7.0
 _ZTSN11QtZeitgeist3LogE@Base 0.7.0
 _ZTSN11QtZeitgeist7MonitorE@Base 0.7.0
 _ZTSN11QtZeitgeist9DataModel10DataSourceE@Base 0.7.0
 _ZTSN11QtZeitgeist9DataModel5EventE@Base 0.7.0
 _ZTSN11QtZeitgeist9DataModel7SubjectE@Base 0.7.0
 _ZTSN11QtZeitgeist9DataModel9TimeRangeE@Base 0.7.0
 _ZTV14MonitorAdaptor@Base 0.7.0
 _ZTV29OrgGnomeZeitgeistLogInterface@Base 0.7.0
 _ZTV35OrgGnomeZeitgeistBlacklistInterface@Base 0.7.0
 _ZTV44OrgGnomeZeitgeistDataSourceRegistryInterface@Base 0.7.0
 _ZTVN11QtZeitgeist14MonitorPrivateE@Base 0.7.0
 _ZTVN11QtZeitgeist18DataSourceRegistryE@Base 0.7.0
 _ZTVN11QtZeitgeist3LogE@Base 0.7.0
 _ZTVN11QtZeitgeist7MonitorE@Base 0.7.0
 _ZTVN11QtZeitgeist9DataModel10DataSourceE@Base 0.7.0
 _ZTVN11QtZeitgeist9DataModel5EventE@Base 0.7.0
 _ZTVN11QtZeitgeist9DataModel7SubjectE@Base 0.7.0
 _ZTVN11QtZeitgeist9DataModel9TimeRangeE@Base 0.7.0
 (optional=templinst)_ZZN11QMetaTypeIdI15QDBusObjectPathE14qt_metatype_idEvE11metatype_id@Base 0.7.0
 (optional=templinst)_ZZN11QMetaTypeIdI5QListIN11QtZeitgeist9DataModel10DataSourceEEE14qt_metatype_idEvE11metatype_id@Base 0.7.0
 (optional=templinst)_ZZN11QMetaTypeIdI5QListIN11QtZeitgeist9DataModel5EventEEE14qt_metatype_idEvE11metatype_id@Base 0.7.0
 (optional=templinst)_ZZN11QMetaTypeIdI5QListIjEE14qt_metatype_idEvE11metatype_id@Base 0.7.0
 (optional=templinst)_ZZN11QMetaTypeIdIN11QtZeitgeist9DataModel10DataSourceEE14qt_metatype_idEvE11metatype_id@Base 0.7.0
 (optional=templinst)_ZZN11QMetaTypeIdIN11QtZeitgeist9DataModel5EventEE14qt_metatype_idEvE11metatype_id@Base 0.7.0
 (optional=templinst)_ZZN11QMetaTypeIdIN11QtZeitgeist9DataModel9TimeRangeEE14qt_metatype_idEvE11metatype_id@Base 0.7.0
